target datalayout = "e-m:e-p270:32:32-p271:32:32-p272:64:64-i64:64-i128:128-f80:128-n8:16:32:64-S128"
target triple = "x86_64-pc-linux-gnu"

%struct.Fra_Lcr_t_ = type { ptr, ptr, ptr, ptr, ptr, ptr, i32, i32, i32, i32, i32, i32, i32, i32, i32, i32, i64, i64, i64, i64, i64, i64 }
%struct.Aig_Man_t_ = type { ptr, ptr, ptr, ptr, ptr, ptr, ptr, %struct.Aig_Obj_t_, i32, i32, i32, i32, i32, i32, [7 x i32], i32, ptr, i32, ptr, i32, ptr, i32, i32, i32, ptr, i32, i32, i32, i32, i32, ptr, ptr, i32, ptr, ptr, i32, ptr, ptr, i32, i32, i32, ptr, ptr, ptr, ptr, ptr, ptr, ptr, ptr, ptr, ptr, ptr, ptr, ptr, ptr, i32, ptr, ptr, ptr, ptr, i32, i64, i64, i64, ptr, ptr }
%struct.Aig_Obj_t_ = type { %union.anon, ptr, ptr, i64, i32, i32, %union.anon.0 }
%union.anon = type { ptr }
%union.anon.0 = type { ptr }
%struct.Vec_Ptr_t_ = type { i32, i32, ptr }
%struct.Fra_Cla_t_ = type { ptr, ptr, ptr, ptr, ptr, ptr, ptr, ptr, ptr, i32, i32, ptr, ptr, ptr, ptr }

; Function Attrs: nounwind uwtable
define internal ptr @Aig_Regular(ptr noundef %0) #0 {
  %2 = alloca ptr, align 8
  store ptr %0, ptr %2, align 8
  %3 = load ptr, ptr %2, align 8
  %4 = ptrtoint ptr %3 to i64
  %5 = and i64 %4, -2
  %6 = inttoptr i64 %5 to ptr
  ret ptr %6
}

; Function Attrs: nounwind uwtable
define internal ptr @Aig_Not(ptr noundef %0) #0 {
  %2 = alloca ptr, align 8
  store ptr %0, ptr %2, align 8
  %3 = load ptr, ptr %2, align 8
  %4 = ptrtoint ptr %3 to i64
  %5 = xor i64 %4, 1
  %6 = inttoptr i64 %5 to ptr
  ret ptr %6
}

; Function Attrs: nounwind uwtable
define internal ptr @Aig_ObjFanin0(ptr noundef %0) #0 {
  %2 = alloca ptr, align 8
  store ptr %0, ptr %2, align 8
  %3 = load ptr, ptr %2, align 8
  %4 = getelementptr inbounds %struct.Aig_Obj_t_, ptr %3, i32 0, i32 1
  %5 = load ptr, ptr %4, align 8
  %6 = call ptr @Aig_Regular(ptr noundef %5)
  ret ptr %6
}

; Function Attrs: nounwind uwtable
define internal ptr @Aig_ManCo(ptr noundef %0, i32 noundef %1) #0 {
  %3 = alloca ptr, align 8
  %4 = alloca i32, align 4
  store ptr %0, ptr %3, align 8
  store i32 %1, ptr %4, align 4
  %5 = load ptr, ptr %3, align 8
  %6 = getelementptr inbounds %struct.Aig_Man_t_, ptr %5, i32 0, i32 3
  %7 = load ptr, ptr %6, align 8
  %8 = load i32, ptr %4, align 4
  %9 = call ptr @Vec_PtrEntry(ptr noundef %7, i32 noundef %8)
  ret ptr %9
}

; Function Attrs: nounwind uwtable
define internal ptr @Aig_ManConst0(ptr noundef %0) #0 {
  %2 = alloca ptr, align 8
  store ptr %0, ptr %2, align 8
  %3 = load ptr, ptr %2, align 8
  %4 = getelementptr inbounds %struct.Aig_Man_t_, ptr %3, i32 0, i32 6
  %5 = load ptr, ptr %4, align 8
  %6 = call ptr @Aig_Not(ptr noundef %5)
  ret ptr %6
}

; Function Attrs: nounwind uwtable
define internal i32 @Aig_ManCiNum(ptr noundef %0) #0 {
  %2 = alloca ptr, align 8
  store ptr %0, ptr %2, align 8
  %3 = load ptr, ptr %2, align 8
  %4 = getelementptr inbounds %struct.Aig_Man_t_, ptr %3, i32 0, i32 14
  %5 = getelementptr inbounds [7 x i32], ptr %4, i64 0, i64 2
  %6 = load i32, ptr %5, align 8
  ret i32 %6
}

; Function Attrs: nounwind uwtable
define internal i32 @Aig_ManCoNum(ptr noundef %0) #0 {
  %2 = alloca ptr, align 8
  store ptr %0, ptr %2, align 8
  %3 = load ptr, ptr %2, align 8
  %4 = getelementptr inbounds %struct.Aig_Man_t_, ptr %3, i32 0, i32 14
  %5 = getelementptr inbounds [7 x i32], ptr %4, i64 0, i64 3
  %6 = load i32, ptr %5, align 4
  ret i32 %6
}

; Function Attrs: nounwind uwtable
define internal ptr @Vec_PtrEntry(ptr noundef %0, i32 noundef %1) #0 {
  %3 = alloca ptr, align 8
  %4 = alloca i32, align 4
  store ptr %0, ptr %3, align 8
  store i32 %1, ptr %4, align 4
  %5 = load ptr, ptr %3, align 8
  %6 = getelementptr inbounds %struct.Vec_Ptr_t_, ptr %5, i32 0, i32 2
  %7 = load ptr, ptr %6, align 8
  %8 = load i32, ptr %4, align 4
  %9 = sext i32 %8 to i64
  %10 = getelementptr inbounds ptr, ptr %7, i64 %9
  %11 = load ptr, ptr %10, align 8
  ret ptr %11
}

; Function Attrs: nounwind uwtable
define internal i32 @Vec_PtrSize(ptr noundef %0) #0 {
  %2 = alloca ptr, align 8
  store ptr %0, ptr %2, align 8
  %3 = load ptr, ptr %2, align 8
  %4 = getelementptr inbounds %struct.Vec_Ptr_t_, ptr %3, i32 0, i32 1
  %5 = load i32, ptr %4, align 4
  ret i32 %5
}

; Function Attrs: nounwind uwtable
define ptr @Fra_LcrDeriveAigForPartitioning(ptr noundef %0) #0 {
  %2 = alloca ptr, align 8
  %3 = alloca ptr, align 8
  %4 = alloca ptr, align 8
  %5 = alloca ptr, align 8
  %6 = alloca ptr, align 8
  %7 = alloca ptr, align 8
  %8 = alloca ptr, align 8
  %9 = alloca i32, align 4
  %10 = alloca i32, align 4
  %11 = alloca i32, align 4
  store ptr %0, ptr %2, align 8
  store i32 0, ptr %9, align 4
  br label %12

12:                                               ; preds = %40, %1
  %13 = load i32, ptr %9, align 4
  %14 = load ptr, ptr %2, align 8
  %15 = getelementptr inbounds %struct.Fra_Lcr_t_, ptr %14, i32 0, i32 0
  %16 = load ptr, ptr %15, align 8
  %17 = getelementptr inbounds %struct.Aig_Man_t_, ptr %16, i32 0, i32 2
  %18 = load ptr, ptr %17, align 8
  %19 = call i32 @Vec_PtrSize(ptr noundef %18)
  %20 = icmp slt i32 %13, %19
  br i1 %20, label %21, label %29

21:                                               ; preds = %12
  %22 = load ptr, ptr %2, align 8
  %23 = getelementptr inbounds %struct.Fra_Lcr_t_, ptr %22, i32 0, i32 0
  %24 = load ptr, ptr %23, align 8
  %25 = getelementptr inbounds %struct.Aig_Man_t_, ptr %24, i32 0, i32 2
  %26 = load ptr, ptr %25, align 8
  %27 = load i32, ptr %9, align 4
  %28 = call ptr @Vec_PtrEntry(ptr noundef %26, i32 noundef %27)
  store ptr %28, ptr %4, align 8
  br label %29

29:                                               ; preds = %21, %12
  %30 = phi i1 [ false, %12 ], [ true, %21 ]
  br i1 %30, label %31, label %43

31:                                               ; preds = %29
  %32 = load ptr, ptr %2, align 8
  %33 = load ptr, ptr %4, align 8
  %34 = getelementptr inbounds %struct.Aig_Obj_t_, ptr %33, i32 0, i32 6
  store ptr %32, ptr %34, align 8
  %35 = load i32, ptr %9, align 4
  %36 = sext i32 %35 to i64
  %37 = inttoptr i64 %36 to ptr
  %38 = load ptr, ptr %4, align 8
  %39 = getelementptr inbounds %struct.Aig_Obj_t_, ptr %38, i32 0, i32 0
  store ptr %37, ptr %39, align 8
  br label %40

40:                                               ; preds = %31
  %41 = load i32, ptr %9, align 4
  %42 = add nsw i32 %41, 1
  store i32 %42, ptr %9, align 4
  br label %12, !llvm.loop !9

43:                                               ; preds = %29
  %44 = load ptr, ptr %2, align 8
  %45 = getelementptr inbounds %struct.Fra_Lcr_t_, ptr %44, i32 0, i32 0
  %46 = load ptr, ptr %45, align 8
  %47 = call i32 @Aig_ManCoNum(ptr noundef %46)
  %48 = load ptr, ptr %2, align 8
  %49 = getelementptr inbounds %struct.Fra_Lcr_t_, ptr %48, i32 0, i32 0
  %50 = load ptr, ptr %49, align 8
  %51 = call i32 @Aig_ManCiNum(ptr noundef %50)
  %52 = sub nsw i32 %47, %51
  store i32 %52, ptr %11, align 4
  %53 = load ptr, ptr %2, align 8
  %54 = getelementptr inbounds %struct.Fra_Lcr_t_, ptr %53, i32 0, i32 0
  %55 = load ptr, ptr %54, align 8
  call void @Aig_ManCleanData(ptr noundef %55)
  %56 = load ptr, ptr %2, align 8
  %57 = getelementptr inbounds %struct.Fra_Lcr_t_, ptr %56, i32 0, i32 0
  %58 = load ptr, ptr %57, align 8
  %59 = call ptr @Aig_ManStartFrom(ptr noundef %58)
  store ptr %59, ptr %3, align 8
  store i32 0, ptr %9, align 4
  br label %60

60:                                               ; preds = %124, %43
  %61 = load i32, ptr %9, align 4
  %62 = load ptr, ptr %2, align 8
  %63 = getelementptr inbounds %struct.Fra_Lcr_t_, ptr %62, i32 0, i32 1
  %64 = load ptr, ptr %63, align 8
  %65 = getelementptr inbounds %struct.Fra_Cla_t_, ptr %64, i32 0, i32 2
  %66 = load ptr, ptr %65, align 8
  %67 = call i32 @Vec_PtrSize(ptr noundef %66)
  %68 = icmp slt i32 %61, %67
  br i1 %68, label %69, label %77

69:                                               ; preds = %60
  %70 = load ptr, ptr %2, align 8
  %71 = getelementptr inbounds %struct.Fra_Lcr_t_, ptr %70, i32 0, i32 1
  %72 = load ptr, ptr %71, align 8
  %73 = getelementptr inbounds %struct.Fra_Cla_t_, ptr %72, i32 0, i32 2
  %74 = load ptr, ptr %73, align 8
  %75 = load i32, ptr %9, align 4
  %76 = call ptr @Vec_PtrEntry(ptr noundef %74, i32 noundef %75)
  store ptr %76, ptr %7, align 8
  br label %77

77:                                               ; preds = %69, %60
  %78 = phi i1 [ false, %60 ], [ true, %69 ]
  br i1 %78, label %79, label %127

79:                                               ; preds = %77
  %80 = load ptr, ptr %3, align 8
  %81 = call ptr @Aig_ManConst0(ptr noundef %80)
  store ptr %81, ptr %8, align 8
  store i32 0, ptr %10, align 4
  br label %82

82:                                               ; preds = %117, %79
  %83 = load ptr, ptr %7, align 8
  %84 = load i32, ptr %10, align 4
  %85 = sext i32 %84 to i64
  %86 = getelementptr inbounds ptr, ptr %83, i64 %85
  %87 = load ptr, ptr %86, align 8
  %88 = icmp ne ptr %87, null
  br i1 %88, label %89, label %120

89:                                               ; preds = %82
  %90 = load ptr, ptr %2, align 8
  %91 = getelementptr inbounds %struct.Fra_Lcr_t_, ptr %90, i32 0, i32 0
  %92 = load ptr, ptr %91, align 8
  %93 = load i32, ptr %11, align 4
  %94 = sext i32 %93 to i64
  %95 = load ptr, ptr %7, align 8
  %96 = load i32, ptr %10, align 4
  %97 = sext i32 %96 to i64
  %98 = getelementptr inbounds ptr, ptr %95, i64 %97
  %99 = load ptr, ptr %98, align 8
  %100 = getelementptr inbounds %struct.Aig_Obj_t_, ptr %99, i32 0, i32 0
  %101 = load ptr, ptr %100, align 8
  %102 = ptrtoint ptr %101 to i64
  %103 = add nsw i64 %94, %102
  %104 = trunc i64 %103 to i32
  %105 = call ptr @Aig_ManCo(ptr noundef %92, i32 noundef %104)
  store ptr %105, ptr %5, align 8
  %106 = load ptr, ptr %3, align 8
  %107 = load ptr, ptr %2, align 8
  %108 = getelementptr inbounds %struct.Fra_Lcr_t_, ptr %107, i32 0, i32 0
  %109 = load ptr, ptr %108, align 8
  %110 = load ptr, ptr %5, align 8
  %111 = call ptr @Aig_ObjFanin0(ptr noundef %110)
  %112 = call ptr @Fra_LcrManDup_rec(ptr noundef %106, ptr noundef %109, ptr noundef %111)
  store ptr %112, ptr %6, align 8
  %113 = load ptr, ptr %3, align 8
  %114 = load ptr, ptr %8, align 8
  %115 = load ptr, ptr %6, align 8
  %116 = call ptr @Aig_Exor(ptr noundef %113, ptr noundef %114, ptr noundef %115)
  store ptr %116, ptr %8, align 8
  br label %117

117:                                              ; preds = %89
  %118 = load i32, ptr %10, align 4
  %119 = add nsw i32 %118, 1
  store i32 %119, ptr %10, align 4
  br label %82, !llvm.loop !10

120:                                              ; preds = %82
  %121 = load ptr, ptr %3, align 8
  %122 = load ptr, ptr %8, align 8
  %123 = call ptr @Aig_ObjCreateCo(ptr noundef %121, ptr noundef %122)
  br label %124

124:                                              ; preds = %120
  %125 = load i32, ptr %9, align 4
  %126 = add nsw i32 %125, 1
  store i32 %126, ptr %9, align 4
  br label %60, !llvm.loop !11

127:                                              ; preds = %77
  store i32 0, ptr %9, align 4
  br label %128

128:                                              ; preds = %170, %127
  %129 = load i32, ptr %9, align 4
  %130 = load ptr, ptr %2, align 8
  %131 = getelementptr inbounds %struct.Fra_Lcr_t_, ptr %130, i32 0, i32 1
  %132 = load ptr, ptr %131, align 8
  %133 = getelementptr inbounds %struct.Fra_Cla_t_, ptr %132, i32 0, i32 3
  %134 = load ptr, ptr %133, align 8
  %135 = call i32 @Vec_PtrSize(ptr noundef %134)
  %136 = icmp slt i32 %129, %135
  br i1 %136, label %137, label %145

137:                                              ; preds = %128
  %138 = load ptr, ptr %2, align 8
  %139 = getelementptr inbounds %struct.Fra_Lcr_t_, ptr %138, i32 0, i32 1
  %140 = load ptr, ptr %139, align 8
  %141 = getelementptr inbounds %struct.Fra_Cla_t_, ptr %140, i32 0, i32 3
  %142 = load ptr, ptr %141, align 8
  %143 = load i32, ptr %9, align 4
  %144 = call ptr @Vec_PtrEntry(ptr noundef %142, i32 noundef %143)
  store ptr %144, ptr %4, align 8
  br label %145

145:                                              ; preds = %137, %128
  %146 = phi i1 [ false, %128 ], [ true, %137 ]
  br i1 %146, label %147, label %173

147:                                              ; preds = %145
  %148 = load ptr, ptr %2, align 8
  %149 = getelementptr inbounds %struct.Fra_Lcr_t_, ptr %148, i32 0, i32 0
  %150 = load ptr, ptr %149, align 8
  %151 = load i32, ptr %11, align 4
  %152 = sext i32 %151 to i64
  %153 = load ptr, ptr %4, align 8
  %154 = getelementptr inbounds %struct.Aig_Obj_t_, ptr %153, i32 0, i32 0
  %155 = load ptr, ptr %154, align 8
  %156 = ptrtoint ptr %155 to i64
  %157 = add nsw i64 %152, %156
  %158 = trunc i64 %157 to i32
  %159 = call ptr @Aig_ManCo(ptr noundef %150, i32 noundef %158)
  store ptr %159, ptr %5, align 8
  %160 = load ptr, ptr %3, align 8
  %161 = load ptr, ptr %2, align 8
  %162 = getelementptr inbounds %struct.Fra_Lcr_t_, ptr %161, i32 0, i32 0
  %163 = load ptr, ptr %162, align 8
  %164 = load ptr, ptr %5, align 8
  %165 = call ptr @Aig_ObjFanin0(ptr noundef %164)
  %166 = call ptr @Fra_LcrManDup_rec(ptr noundef %160, ptr noundef %163, ptr noundef %165)
  store ptr %166, ptr %8, align 8
  %167 = load ptr, ptr %3, align 8
  %168 = load ptr, ptr %8, align 8
  %169 = call ptr @Aig_ObjCreateCo(ptr noundef %167, ptr noundef %168)
  br label %170

170:                                              ; preds = %147
  %171 = load i32, ptr %9, align 4
  %172 = add nsw i32 %171, 1
  store i32 %172, ptr %9, align 4
  br label %128, !llvm.loop !12

173:                                              ; preds = %145
  %174 = load ptr, ptr %3, align 8
  ret ptr %174
}