; Function Attrs: nounwind uwtable
define ptr @Fra_LcrDeriveAigForPartitioning(ptr noundef %0) local_unnamed_addr #2 {
  %2 = load ptr, ptr %0, align 8
  %3 = getelementptr inbounds nuw i8, ptr %2, i64 16
  %4 = load ptr, ptr %3, align 8
  %5 = getelementptr i8, ptr %4, i64 4
  %.val5667 = load i32, ptr %5, align 4
  %6 = icmp sgt i32 %.val5667, 0
  br i1 %6, label %.lr.ph, label %.critedge

.lr.ph:                                           ; preds = %1, %.lr.ph
  %indvars.iv = phi i64 [ %indvars.iv.next, %.lr.ph ], [ 0, %1 ]
  %7 = phi ptr [ %15, %.lr.ph ], [ %4, %1 ]
  %8 = getelementptr i8, ptr %7, i64 8
  %.val59 = load ptr, ptr %8, align 8
  %9 = getelementptr inbounds nuw ptr, ptr %.val59, i64 %indvars.iv
  %10 = load ptr, ptr %9, align 8
  %11 = getelementptr inbounds nuw i8, ptr %10, i64 40
  store ptr %0, ptr %11, align 8
  %12 = inttoptr i64 %indvars.iv to ptr
  store ptr %12, ptr %10, align 8
  %indvars.iv.next = add nuw nsw i64 %indvars.iv, 1
  %13 = load ptr, ptr %0, align 8
  %14 = getelementptr inbounds nuw i8, ptr %13, i64 16
  %15 = load ptr, ptr %14, align 8
  %16 = getelementptr i8, ptr %15, i64 4
  %.val56 = load i32, ptr %16, align 4
  %17 = sext i32 %.val56 to i64
  %18 = icmp slt i64 %indvars.iv.next, %17
  br i1 %18, label %.lr.ph, label %.critedge, !llvm.loop !9

.critedge:                                        ; preds = %.lr.ph, %1
  %.lcssa66 = phi ptr [ %2, %1 ], [ %13, %.lr.ph ]
  %19 = getelementptr i8, ptr %.lcssa66, i64 140
  %.val64 = load i32, ptr %19, align 4
  %20 = getelementptr i8, ptr %.lcssa66, i64 136
  %.val = load i32, ptr %20, align 8
  %21 = sub nsw i32 %.val64, %.val
  tail call void @Aig_ManCleanData(ptr noundef nonnull %.lcssa66) #18
  %22 = load ptr, ptr %0, align 8
  %23 = tail call ptr @Aig_ManStartFrom(ptr noundef %22) #18
  %24 = getelementptr inbounds nuw i8, ptr %0, i64 8
  %25 = load ptr, ptr %24, align 8
  %26 = getelementptr inbounds nuw i8, ptr %25, i64 16
  %27 = load ptr, ptr %26, align 8
  %28 = getelementptr i8, ptr %27, i64 4
  %.val5574 = load i32, ptr %28, align 4
  %29 = icmp sgt i32 %.val5574, 0
  br i1 %29, label %.lr.ph76, label %.critedge2.preheader

.lr.ph76:                                         ; preds = %.critedge
  %30 = getelementptr i8, ptr %23, i64 48
  br label %36

.critedge2.preheader:                             ; preds = %._crit_edge, %.critedge
  %31 = phi ptr [ %25, %.critedge ], [ %65, %._crit_edge ]
  %32 = getelementptr inbounds nuw i8, ptr %31, i64 24
  %33 = load ptr, ptr %32, align 8
  %34 = getelementptr i8, ptr %33, i64 4
  %.val5477 = load i32, ptr %34, align 4
  %35 = icmp sgt i32 %.val5477, 0
  br i1 %35, label %.critedge2, label %.critedge4

36:                                               ; preds = %.lr.ph76, %._crit_edge
  %indvars.iv86 = phi i64 [ 0, %.lr.ph76 ], [ %indvars.iv.next87, %._crit_edge ]
  %37 = phi ptr [ %27, %.lr.ph76 ], [ %67, %._crit_edge ]
  %38 = getelementptr i8, ptr %37, i64 8
  %.val58 = load ptr, ptr %38, align 8
  %39 = getelementptr inbounds nuw ptr, ptr %.val58, i64 %indvars.iv86
  %40 = load ptr, ptr %39, align 8
  %.val65 = load ptr, ptr %30, align 8
  %41 = ptrtoint ptr %.val65 to i64
  %42 = xor i64 %41, 1
  %43 = inttoptr i64 %42 to ptr
  %44 = load ptr, ptr %40, align 8
  %.not69 = icmp eq ptr %44, null
  br i1 %.not69, label %._crit_edge, label %.lr.ph72

.lr.ph72:                                         ; preds = %36, %.lr.ph72
  %indvars.iv83 = phi i64 [ %indvars.iv.next84, %.lr.ph72 ], [ 0, %36 ]
  %45 = phi ptr [ %63, %.lr.ph72 ], [ %44, %36 ]
  %.05270 = phi ptr [ %61, %.lr.ph72 ], [ %43, %36 ]
  %46 = load ptr, ptr %0, align 8
  %47 = load ptr, ptr %45, align 8
  %48 = ptrtoint ptr %47 to i64
  %49 = trunc i64 %48 to i32
  %50 = add i32 %21, %49
  %51 = getelementptr i8, ptr %46, i64 24
  %.val61 = load ptr, ptr %51, align 8
  %52 = getelementptr i8, ptr %.val61, i64 8
  %.val61.val = load ptr, ptr %52, align 8
  %53 = sext i32 %50 to i64
  %54 = getelementptr inbounds ptr, ptr %.val61.val, i64 %53
  %55 = load ptr, ptr %54, align 8
  %56 = getelementptr i8, ptr %55, i64 8
  %.val63 = load ptr, ptr %56, align 8
  %57 = ptrtoint ptr %.val63 to i64
  %58 = and i64 %57, -2
  %59 = inttoptr i64 %58 to ptr
  %60 = tail call ptr @Fra_LcrManDup_rec(ptr noundef %23, ptr noundef %46, ptr noundef %59)
  %61 = tail call ptr @Aig_Exor(ptr noundef %23, ptr noundef %.05270, ptr noundef %60) #18
  %indvars.iv.next84 = add nuw nsw i64 %indvars.iv83, 1
  %62 = getelementptr inbounds nuw ptr, ptr %40, i64 %indvars.iv.next84
  %63 = load ptr, ptr %62, align 8
  %.not = icmp eq ptr %63, null
  br i1 %.not, label %._crit_edge, label %.lr.ph72, !llvm.loop !10

._crit_edge:                                      ; preds = %.lr.ph72, %36
  %.052.lcssa = phi ptr [ %43, %36 ], [ %61, %.lr.ph72 ]
  %64 = tail call ptr @Aig_ObjCreateCo(ptr noundef %23, ptr noundef %.052.lcssa) #18
  %indvars.iv.next87 = add nuw nsw i64 %indvars.iv86, 1
  %65 = load ptr, ptr %24, align 8
  %66 = getelementptr inbounds nuw i8, ptr %65, i64 16
  %67 = load ptr, ptr %66, align 8
  %68 = getelementptr i8, ptr %67, i64 4
  %.val55 = load i32, ptr %68, align 4
  %69 = sext i32 %.val55 to i64
  %70 = icmp slt i64 %indvars.iv.next87, %69
  br i1 %70, label %36, label %.critedge2.preheader, !llvm.loop !11

.critedge2:                                       ; preds = %.critedge2.preheader, %.critedge2
  %indvars.iv89 = phi i64 [ %indvars.iv.next90, %.critedge2 ], [ 0, %.critedge2.preheader ]
  %71 = phi ptr [ %93, %.critedge2 ], [ %33, %.critedge2.preheader ]
  %72 = getelementptr i8, ptr %71, i64 8
  %.val57 = load ptr, ptr %72, align 8
  %73 = getelementptr inbounds nuw ptr, ptr %.val57, i64 %indvars.iv89
  %74 = load ptr, ptr %73, align 8
  %75 = load ptr, ptr %0, align 8
  %76 = load ptr, ptr %74, align 8
  %77 = ptrtoint ptr %76 to i64
  %78 = trunc i64 %77 to i32
  %79 = add i32 %21, %78
  %80 = getelementptr i8, ptr %75, i64 24
  %.val60 = load ptr, ptr %80, align 8
  %81 = getelementptr i8, ptr %.val60, i64 8
  %.val60.val = load ptr, ptr %81, align 8
  %82 = sext i32 %79 to i64
  %83 = getelementptr inbounds ptr, ptr %.val60.val, i64 %82
  %84 = load ptr, ptr %83, align 8
  %85 = getelementptr i8, ptr %84, i64 8
  %.val62 = load ptr, ptr %85, align 8
  %86 = ptrtoint ptr %.val62 to i64
  %87 = and i64 %86, -2
  %88 = inttoptr i64 %87 to ptr
  %89 = tail call ptr @Fra_LcrManDup_rec(ptr noundef %23, ptr noundef %75, ptr noundef %88)
  %90 = tail call ptr @Aig_ObjCreateCo(ptr noundef %23, ptr noundef %89) #18
  %indvars.iv.next90 = add nuw nsw i64 %indvars.iv89, 1
  %91 = load ptr, ptr %24, align 8
  %92 = getelementptr inbounds nuw i8, ptr %91, i64 24
  %93 = load ptr, ptr %92, align 8
  %94 = getelementptr i8, ptr %93, i64 4
  %.val54 = load i32, ptr %94, align 4
  %95 = sext i32 %.val54 to i64
  %96 = icmp slt i64 %indvars.iv.next90, %95
  br i1 %96, label %.critedge2, label %.critedge4, !llvm.loop !12

.critedge4:                                       ; preds = %.critedge2, %.critedge2.preheader
  ret ptr %23
}